target datalayout = "e-m:e-p270:32:32-p271:32:32-p272:64:64-i64:64-i128:128-f80:128-n8:16:32:64-S128"
target triple = "x86_64-pc-linux-gnu"

%class.LogTagSet = type { ptr, i64, [5 x i32], [4 x i8], %class.LogOutputList, %class.LogDecorators, ptr }
%class.LogOutputList = type <{ [6 x ptr], i32, [4 x i8] }>
%class.LogDecorators = type { i32 }
%class.CallInfo = type { ptr, %class.methodHandle, %class.methodHandle, i32, i32, %class.Handle, %class.Handle }
%class.methodHandle = type { ptr, ptr }
%class.Handle = type { ptr }
%class.CompiledIC = type { ptr, ptr, ptr }

@.str.7 = private unnamed_addr constant [47 x i8] c"IC@0x%016lx: to megamorphic %s entry: 0x%016lx\00", align 1
@_ZN16LogTagSetMappingILN6LogTag4typeE59ELS1_0ELS1_0ELS1_0ELS1_0ELS1_0EE7_tagsetE = linkonce_odr hidden global %class.LogTagSet zeroinitializer, comdat, align 8

; Function Attrs: mustprogress nounwind uwtable
define linkonce_odr hidden noundef zeroext i1 @_ZNK13LogOutputList8is_levelEN8LogLevel4typeE(ptr noundef nonnull align 8 dereferenceable(52) %0, i32 noundef %1) #1 comdat align 2 {
  %3 = alloca ptr, align 8
  %4 = alloca i32, align 4
  store ptr %0, ptr %3, align 8
  store i32 %1, ptr %4, align 4
  %5 = load ptr, ptr %3, align 8
  %6 = getelementptr inbounds %class.LogOutputList, ptr %5, i32 0, i32 0
  %7 = load i32, ptr %4, align 4
  %8 = zext i32 %7 to i64
  %9 = getelementptr inbounds [6 x ptr], ptr %6, i64 0, i64 %8
  %10 = load volatile ptr, ptr %9, align 8
  %11 = icmp ne ptr %10, null
  ret i1 %11
}

; Function Attrs: mustprogress nounwind uwtable
define linkonce_odr hidden noundef ptr @_ZNK17NativeInstruction7addr_atEi(ptr noundef nonnull align 1 dereferenceable(1) %0, i32 noundef %1) #1 comdat align 2 {
  %3 = alloca ptr, align 8
  %4 = alloca i32, align 4
  store ptr %0, ptr %3, align 8
  store i32 %1, ptr %4, align 4
  %5 = load ptr, ptr %3, align 8
  %6 = load i32, ptr %4, align 4
  %7 = sext i32 %6 to i64
  %8 = getelementptr inbounds i8, ptr %5, i64 %7
  ret ptr %8
}

; Function Attrs: mustprogress nounwind uwtable
define linkonce_odr hidden noundef zeroext i1 @_ZNK9LogTagSet8is_levelEN8LogLevel4typeE(ptr noundef nonnull align 8 dereferenceable(112) %0, i32 noundef %1) #1 comdat align 2 {
  %3 = alloca ptr, align 8
  %4 = alloca i32, align 4
  store ptr %0, ptr %3, align 8
  store i32 %1, ptr %4, align 4
  %5 = load ptr, ptr %3, align 8
  %6 = getelementptr inbounds %class.LogTagSet, ptr %5, i32 0, i32 4
  %7 = load i32, ptr %4, align 4
  %8 = call noundef zeroext i1 @_ZNK13LogOutputList8is_levelEN8LogLevel4typeE(ptr noundef nonnull align 8 dereferenceable(52) %6, i32 noundef %7)
  ret i1 %8
}

; Function Attrs: mustprogress nounwind uwtable
define linkonce_odr hidden noundef nonnull align 8 dereferenceable(112) ptr @_ZN16LogTagSetMappingILN6LogTag4typeE59ELS1_0ELS1_0ELS1_0ELS1_0ELS1_0EE6tagsetEv() #1 comdat align 2 {
  ret ptr @_ZN16LogTagSetMappingILN6LogTag4typeE59ELS1_0ELS1_0ELS1_0ELS1_0ELS1_0EE7_tagsetE
}

; Function Attrs: mustprogress nounwind uwtable
define linkonce_odr hidden noundef i64 @_Z3p2iPVKv(ptr noundef %0) #1 comdat {
  %2 = alloca ptr, align 8
  store ptr %0, ptr %2, align 8
  %3 = load ptr, ptr %2, align 8
  %4 = ptrtoint ptr %3 to i64
  ret i64 %4
}

; Function Attrs: mustprogress nounwind uwtable
define linkonce_odr hidden noundef ptr @_ZNK10NativeCall19instruction_addressEv(ptr noundef nonnull align 1 dereferenceable(1) %0) #1 comdat align 2 {
  %2 = alloca ptr, align 8
  store ptr %0, ptr %2, align 8
  %3 = load ptr, ptr %2, align 8
  %4 = call noundef ptr @_ZNK17NativeInstruction7addr_atEi(ptr noundef nonnull align 1 dereferenceable(1) %3, i32 noundef 0)
  ret ptr %4
}

; Function Attrs: mustprogress nounwind uwtable
define linkonce_odr hidden noundef zeroext i1 @_ZN7LogImplILN6LogTag4typeE59ELS1_0ELS1_0ELS1_0ELS1_0ELS1_0EE8is_levelEN8LogLevel4typeE(i32 noundef %0) #1 comdat align 2 {
  %2 = alloca i32, align 4
  store i32 %0, ptr %2, align 4
  %3 = call noundef nonnull align 8 dereferenceable(112) ptr @_ZN16LogTagSetMappingILN6LogTag4typeE59ELS1_0ELS1_0ELS1_0ELS1_0ELS1_0EE6tagsetEv()
  %4 = load i32, ptr %2, align 4
  %5 = call noundef zeroext i1 @_ZNK9LogTagSet8is_levelEN8LogLevel4typeE(ptr noundef nonnull align 8 dereferenceable(112) %3, i32 noundef %4)
  ret i1 %5
}

; Function Attrs: mustprogress nounwind uwtable
define linkonce_odr hidden noundef ptr @_ZN11VtableStubs16find_vtable_stubEi(i32 noundef %0) #1 comdat align 2 {
  %2 = alloca i32, align 4
  store i32 %0, ptr %2, align 4
  %3 = load i32, ptr %2, align 4
  %4 = call noundef ptr @_ZN11VtableStubs9find_stubEbi(i1 noundef zeroext true, i32 noundef %3)
  ret ptr %4
}

; Function Attrs: mustprogress nounwind uwtable
define linkonce_odr hidden noundef i32 @_ZNK8CallInfo12vtable_indexEv(ptr noundef nonnull align 8 dereferenceable(64) %0) #1 comdat align 2 {
  %2 = alloca ptr, align 8
  store ptr %0, ptr %2, align 8
  %3 = load ptr, ptr %2, align 8
  %4 = getelementptr inbounds %class.CallInfo, ptr %3, i32 0, i32 4
  %5 = load i32, ptr %4, align 4
  ret i32 %5
}

; Function Attrs: mustprogress nounwind uwtable
define linkonce_odr hidden noundef ptr @_ZN11VtableStubs16find_itable_stubEi(i32 noundef %0) #1 comdat align 2 {
  %2 = alloca i32, align 4
  store i32 %0, ptr %2, align 4
  %3 = load i32, ptr %2, align 4
  %4 = call noundef ptr @_ZN11VtableStubs9find_stubEbi(i1 noundef zeroext false, i32 noundef %3)
  ret ptr %4
}

; Function Attrs: mustprogress nounwind uwtable
define linkonce_odr hidden noundef i32 @_ZNK8CallInfo12itable_indexEv(ptr noundef nonnull align 8 dereferenceable(64) %0) #1 comdat align 2 {
  %2 = alloca ptr, align 8
  store ptr %0, ptr %2, align 8
  %3 = load ptr, ptr %2, align 8
  %4 = getelementptr inbounds %class.CallInfo, ptr %3, i32 0, i32 4
  %5 = load i32, ptr %4, align 4
  ret i32 %5
}

; Function Attrs: mustprogress nounwind uwtable
define linkonce_odr hidden noundef i32 @_ZNK8CallInfo9call_kindEv(ptr noundef nonnull align 8 dereferenceable(64) %0) #1 comdat align 2 {
  %2 = alloca ptr, align 8
  store ptr %0, ptr %2, align 8
  %3 = load ptr, ptr %2, align 8
  %4 = getelementptr inbounds %class.CallInfo, ptr %3, i32 0, i32 3
  %5 = load i32, ptr %4, align 8
  ret i32 %5
}

; Function Attrs: mustprogress nounwind uwtable
define hidden void @_ZN10CompiledIC18set_to_megamorphicEP8CallInfo(ptr noundef nonnull align 8 dereferenceable(24) %0, ptr noundef %1) #1 align 2 {
  %3 = alloca ptr, align 8
  %4 = alloca ptr, align 8
  %5 = alloca ptr, align 8
  %6 = alloca i32, align 4
  %7 = alloca i32, align 4
  store ptr %0, ptr %3, align 8
  store ptr %1, ptr %4, align 8
  %8 = load ptr, ptr %3, align 8
  %9 = load ptr, ptr %4, align 8
  %10 = call noundef i32 @_ZNK8CallInfo9call_kindEv(ptr noundef nonnull align 8 dereferenceable(64) %9)
  %11 = icmp eq i32 %10, 0
  br i1 %11, label %12, label %13

12:                                               ; preds = %2
  br label %53

13:                                               ; preds = %2
  %14 = load ptr, ptr %4, align 8
  %15 = call noundef i32 @_ZNK8CallInfo9call_kindEv(ptr noundef nonnull align 8 dereferenceable(64) %14)
  %16 = icmp eq i32 %15, 2
  br i1 %16, label %17, label %26

17:                                               ; preds = %13
  %18 = load ptr, ptr %4, align 8
  %19 = call noundef i32 @_ZNK8CallInfo12itable_indexEv(ptr noundef nonnull align 8 dereferenceable(64) %18)
  store i32 %19, ptr %6, align 4
  %20 = load i32, ptr %6, align 4
  %21 = call noundef ptr @_ZN11VtableStubs16find_itable_stubEi(i32 noundef %20)
  store ptr %21, ptr %5, align 8
  %22 = load ptr, ptr %5, align 8
  %23 = icmp eq ptr %22, null
  br i1 %23, label %24, label %25

24:                                               ; preds = %17
  br label %53

25:                                               ; preds = %17
  br label %35

26:                                               ; preds = %13
  %27 = load ptr, ptr %4, align 8
  %28 = call noundef i32 @_ZNK8CallInfo12vtable_indexEv(ptr noundef nonnull align 8 dereferenceable(64) %27)
  store i32 %28, ptr %7, align 4
  %29 = load i32, ptr %7, align 4
  %30 = call noundef ptr @_ZN11VtableStubs16find_vtable_stubEi(i32 noundef %29)
  store ptr %30, ptr %5, align 8
  %31 = load ptr, ptr %5, align 8
  %32 = icmp eq ptr %31, null
  br i1 %32, label %33, label %34

33:                                               ; preds = %26
  br label %53

34:                                               ; preds = %26
  br label %35

35:                                               ; preds = %34, %25
  br label %36

36:                                               ; preds = %35
  %37 = call noundef zeroext i1 @_ZN7LogImplILN6LogTag4typeE59ELS1_0ELS1_0ELS1_0ELS1_0ELS1_0EE8is_levelEN8LogLevel4typeE(i32 noundef 1)
  br i1 %37, label %39, label %38

38:                                               ; preds = %36
  br label %49

39:                                               ; preds = %36
  %40 = getelementptr inbounds %class.CompiledIC, ptr %8, i32 0, i32 2
  %41 = load ptr, ptr %40, align 8
  %42 = call noundef ptr @_ZNK10NativeCall19instruction_addressEv(ptr noundef nonnull align 1 dereferenceable(1) %41)
  %43 = call noundef i64 @_Z3p2iPVKv(ptr noundef %42)
  %44 = load ptr, ptr %4, align 8
  %45 = call noundef ptr @_ZNK8CallInfo15selected_methodEv(ptr noundef nonnull align 8 dereferenceable(64) %44)
  %46 = call noundef ptr @_ZNK8Metadata18print_value_stringEv(ptr noundef nonnull align 8 dereferenceable(8) %45)
  %47 = load ptr, ptr %5, align 8
  %48 = call noundef i64 @_Z3p2iPVKv(ptr noundef %47)
  call void (ptr, ...) @_ZN7LogImplILN6LogTag4typeE59ELS1_0ELS1_0ELS1_0ELS1_0ELS1_0EE5writeILN8LogLevel4typeE1EEEvPKcz(ptr noundef @.str.7, i64 noundef %43, ptr noundef %46, i64 noundef %48)
  br label %49

49:                                               ; preds = %39, %38
  %50 = getelementptr inbounds %class.CompiledIC, ptr %8, i32 0, i32 2
  %51 = load ptr, ptr %50, align 8
  %52 = load ptr, ptr %5, align 8
  call void @_ZN10NativeCall23set_destination_mt_safeEPh(ptr noundef nonnull align 1 dereferenceable(1) %51, ptr noundef %52)
  br label %53

53:                                               ; preds = %49, %33, %24, %12
  ret void
}