; Function Attrs: mustprogress nounwind uwtable
define hidden void @_ZN10CompiledIC18set_to_megamorphicEP8CallInfo(ptr nocapture noundef nonnull readonly align 8 dereferenceable(24) %0, ptr noundef %1) local_unnamed_addr #0 align 2 {
  %3 = getelementptr inbounds i8, ptr %1, i64 40
  %4 = load i32, ptr %3, align 8
  switch i32 %4, label %10 [
    i32 0, label %27
    i32 2, label %5
  ]

5:                                                ; preds = %2
  %6 = getelementptr inbounds i8, ptr %1, i64 44
  %7 = load i32, ptr %6, align 4
  %8 = tail call noundef ptr @_ZN11VtableStubs9find_stubEbi(i1 noundef zeroext false, i32 noundef %7) #14
  %9 = icmp eq ptr %8, null
  br i1 %9, label %27, label %15

10:                                               ; preds = %2
  %11 = getelementptr inbounds i8, ptr %1, i64 44
  %12 = load i32, ptr %11, align 4
  %13 = tail call noundef ptr @_ZN11VtableStubs9find_stubEbi(i1 noundef zeroext true, i32 noundef %12) #14
  %14 = icmp eq ptr %13, null
  br i1 %14, label %27, label %15

15:                                               ; preds = %5, %10
  %.0 = phi ptr [ %8, %5 ], [ %13, %10 ]
  %16 = load volatile ptr, ptr getelementptr inbounds (i8, ptr @_ZN16LogTagSetMappingILN6LogTag4typeE59ELS1_0ELS1_0ELS1_0ELS1_0ELS1_0EE7_tagsetE, i64 48), align 8
  %.not = icmp eq ptr %16, null
  br i1 %.not, label %24, label %17

17:                                               ; preds = %15
  %18 = getelementptr inbounds i8, ptr %0, i64 16
  %19 = load ptr, ptr %18, align 8
  %20 = ptrtoint ptr %19 to i64
  %21 = tail call noundef ptr @_ZNK8CallInfo15selected_methodEv(ptr noundef nonnull align 8 dereferenceable(64) %1) #14
  %22 = tail call noundef ptr @_ZNK8Metadata18print_value_stringEv(ptr noundef nonnull align 8 dereferenceable(8) %21) #14
  %23 = ptrtoint ptr %.0 to i64
  tail call void (ptr, ...) @_ZN7LogImplILN6LogTag4typeE59ELS1_0ELS1_0ELS1_0ELS1_0ELS1_0EE5writeILN8LogLevel4typeE1EEEvPKcz(ptr noundef nonnull @.str.7, i64 noundef %20, ptr noundef %22, i64 noundef %23)
  br label %24

24:                                               ; preds = %15, %17
  %25 = getelementptr inbounds i8, ptr %0, i64 16
  %26 = load ptr, ptr %25, align 8
  tail call void @_ZN10NativeCall23set_destination_mt_safeEPh(ptr noundef nonnull align 1 dereferenceable(1) %26, ptr noundef nonnull %.0) #14
  br label %27

27:                                               ; preds = %2, %10, %5, %24
  ret void
}